target datalayout = "e-m:e-p270:32:32-p271:32:32-p272:64:64-i64:64-i128:128-f80:128-n8:16:32:64-S128"
target triple = "x86_64-pc-linux-gnu"

%"class.OpenSubdiv::v3_6_0::Bfr::SurfaceFactory::SurfaceSet" = type { i32, i32, ptr, ptr, ptr, ptr, ptr }

; Function Attrs: mustprogress nounwind uwtable
define linkonce_odr void @_ZN10OpenSubdiv6v3_6_03Bfr14SurfaceFactory10SurfaceSetC2Ev(ptr noundef nonnull align 8 dereferenceable(48) %0) unnamed_addr #0 comdat align 2 {
  %2 = alloca ptr, align 8
  store ptr %0, ptr %2, align 8
  %3 = load ptr, ptr %2, align 8
  %4 = getelementptr inbounds nuw %"class.OpenSubdiv::v3_6_0::Bfr::SurfaceFactory::SurfaceSet", ptr %3, i32 0, i32 0
  store i32 0, ptr %4, align 8
  %5 = getelementptr inbounds nuw %"class.OpenSubdiv::v3_6_0::Bfr::SurfaceFactory::SurfaceSet", ptr %3, i32 0, i32 1
  store i32 0, ptr %5, align 4
  %6 = getelementptr inbounds nuw %"class.OpenSubdiv::v3_6_0::Bfr::SurfaceFactory::SurfaceSet", ptr %3, i32 0, i32 2
  store ptr null, ptr %6, align 8
  %7 = getelementptr inbounds nuw %"class.OpenSubdiv::v3_6_0::Bfr::SurfaceFactory::SurfaceSet", ptr %3, i32 0, i32 3
  store ptr null, ptr %7, align 8
  %8 = getelementptr inbounds nuw %"class.OpenSubdiv::v3_6_0::Bfr::SurfaceFactory::SurfaceSet", ptr %3, i32 0, i32 4
  store ptr null, ptr %8, align 8
  %9 = getelementptr inbounds nuw %"class.OpenSubdiv::v3_6_0::Bfr::SurfaceFactory::SurfaceSet", ptr %3, i32 0, i32 5
  store ptr null, ptr %9, align 8
  %10 = getelementptr inbounds nuw %"class.OpenSubdiv::v3_6_0::Bfr::SurfaceFactory::SurfaceSet", ptr %3, i32 0, i32 6
  store ptr null, ptr %10, align 8
  ret void
}

; Function Attrs: mustprogress uwtable
define noundef zeroext i1 @_ZNK10OpenSubdiv6v3_6_03Bfr14SurfaceFactory12initSurfacesEiPNS1_8internal11SurfaceDataES5_S5_iPKl(ptr noundef nonnull align 8 dereferenceable(56) %0, i32 noundef %1, ptr noundef %2, ptr noundef %3, ptr noundef %4, i32 noundef %5, ptr noundef %6) #1 align 2 {
  %8 = alloca ptr, align 8
  %9 = alloca i32, align 4
  %10 = alloca ptr, align 8
  %11 = alloca ptr, align 8
  %12 = alloca ptr, align 8
  %13 = alloca i32, align 4
  %14 = alloca ptr, align 8
  %15 = alloca %"class.OpenSubdiv::v3_6_0::Bfr::SurfaceFactory::SurfaceSet", align 8
  store ptr %0, ptr %8, align 8
  store i32 %1, ptr %9, align 4
  store ptr %2, ptr %10, align 8
  store ptr %3, ptr %11, align 8
  store ptr %4, ptr %12, align 8
  store i32 %5, ptr %13, align 4
  store ptr %6, ptr %14, align 8
  %16 = load ptr, ptr %8, align 8
  call void @_ZN10OpenSubdiv6v3_6_03Bfr14SurfaceFactory10SurfaceSetC2Ev(ptr noundef nonnull align 8 dereferenceable(48) %15)
  %17 = load ptr, ptr %10, align 8
  %18 = getelementptr inbounds nuw %"class.OpenSubdiv::v3_6_0::Bfr::SurfaceFactory::SurfaceSet", ptr %15, i32 0, i32 2
  store ptr %17, ptr %18, align 8
  %19 = load ptr, ptr %11, align 8
  %20 = getelementptr inbounds nuw %"class.OpenSubdiv::v3_6_0::Bfr::SurfaceFactory::SurfaceSet", ptr %15, i32 0, i32 3
  store ptr %19, ptr %20, align 8
  %21 = load ptr, ptr %12, align 8
  %22 = getelementptr inbounds nuw %"class.OpenSubdiv::v3_6_0::Bfr::SurfaceFactory::SurfaceSet", ptr %15, i32 0, i32 4
  store ptr %21, ptr %22, align 8
  %23 = load ptr, ptr %14, align 8
  %24 = getelementptr inbounds nuw %"class.OpenSubdiv::v3_6_0::Bfr::SurfaceFactory::SurfaceSet", ptr %15, i32 0, i32 6
  store ptr %23, ptr %24, align 8
  %25 = load i32, ptr %13, align 4
  %26 = getelementptr inbounds nuw %"class.OpenSubdiv::v3_6_0::Bfr::SurfaceFactory::SurfaceSet", ptr %15, i32 0, i32 1
  store i32 %25, ptr %26, align 4
  %27 = load i32, ptr %13, align 4
  %28 = load ptr, ptr %10, align 8
  %29 = icmp ne ptr %28, null
  %30 = zext i1 %29 to i32
  %31 = add nsw i32 %27, %30
  %32 = load ptr, ptr %11, align 8
  %33 = icmp ne ptr %32, null
  %34 = zext i1 %33 to i32
  %35 = add nsw i32 %31, %34
  %36 = getelementptr inbounds nuw %"class.OpenSubdiv::v3_6_0::Bfr::SurfaceFactory::SurfaceSet", ptr %15, i32 0, i32 0
  store i32 %35, ptr %36, align 8
  %37 = load i32, ptr %9, align 4
  %38 = call noundef zeroext i1 @_ZNK10OpenSubdiv6v3_6_03Bfr14SurfaceFactory19populateAllSurfacesEiPNS2_10SurfaceSetE(ptr noundef nonnull align 8 dereferenceable(56) %16, i32 noundef %37, ptr noundef %15)
  ret i1 %38
}