; Function Attrs: mustprogress uwtable
define noundef zeroext i1 @_ZNK10OpenSubdiv6v3_6_03Bfr14SurfaceFactory12initSurfacesEiPNS1_8internal11SurfaceDataES5_S5_iPKl(ptr noundef nonnull align 8 dereferenceable(56) %0, i32 noundef %1, ptr noundef %2, ptr noundef %3, ptr noundef %4, i32 noundef %5, ptr noundef %6) local_unnamed_addr #2 align 2 {
  %8 = alloca %"class.OpenSubdiv::v3_6_0::Bfr::SurfaceFactory::SurfaceSet", align 8
  %9 = getelementptr inbounds nuw i8, ptr %8, i64 32
  store i64 0, ptr %9, align 8
  %10 = getelementptr inbounds nuw i8, ptr %8, i64 8
  store ptr %2, ptr %10, align 8
  %11 = getelementptr inbounds nuw i8, ptr %8, i64 16
  store ptr %3, ptr %11, align 8
  %12 = getelementptr inbounds nuw i8, ptr %8, i64 24
  store ptr %4, ptr %12, align 8
  %13 = getelementptr inbounds nuw i8, ptr %8, i64 40
  store ptr %6, ptr %13, align 8
  %14 = getelementptr inbounds nuw i8, ptr %8, i64 4
  store i32 %5, ptr %14, align 4
  %15 = icmp ne ptr %2, null
  %16 = zext i1 %15 to i32
  %17 = add nsw i32 %5, %16
  %18 = icmp ne ptr %3, null
  %19 = zext i1 %18 to i32
  %20 = add nsw i32 %17, %19
  store i32 %20, ptr %8, align 8
  %21 = call noundef zeroext i1 @_ZNK10OpenSubdiv6v3_6_03Bfr14SurfaceFactory19populateAllSurfacesEiPNS2_10SurfaceSetE(ptr noundef nonnull align 8 dereferenceable(56) %0, i32 noundef %1, ptr noundef nonnull %8)
  ret i1 %21
}